target datalayout = "e-m:e-p270:32:32-p271:32:32-p272:64:64-i64:64-i128:128-f80:128-n8:16:32:64-S128"
target triple = "x86_64-pc-linux-gnu"

%"class.std::__cxx11::basic_string" = type { %"struct.std::__cxx11::basic_string<char>::_Alloc_hider", i64, %union.anon.20 }
%"struct.std::__cxx11::basic_string<char>::_Alloc_hider" = type { ptr }
%union.anon.20 = type { i64, [8 x i8] }
%"class.std::allocator.17" = type { i8 }
%struct.Example = type { %"class.std::__cxx11::basic_string" }

; Function Attrs: mustprogress nounwind optsize uwtable
define linkonce_odr void @_ZNSt15__new_allocatorIcEC2ERKS0_(ptr noundef nonnull align 1 dereferenceable(1) %0, ptr noundef nonnull align 1 dereferenceable(1) %1) unnamed_addr #8 comdat align 2 {
  %3 = alloca ptr, align 8
  %4 = alloca ptr, align 8
  store ptr %0, ptr %3, align 8, !tbaa !152
  store ptr %1, ptr %4, align 8, !tbaa !152
  ret void
}

; Function Attrs: mustprogress nounwind optsize uwtable
define available_externally void @_ZNSaIcEC2ERKS_(ptr noundef nonnull align 1 dereferenceable(1) %0, ptr noundef nonnull align 1 dereferenceable(1) %1) unnamed_addr #8 align 2 {
  %3 = alloca ptr, align 8
  %4 = alloca ptr, align 8
  store ptr %0, ptr %3, align 8, !tbaa !141
  store ptr %1, ptr %4, align 8, !tbaa !141
  %5 = load ptr, ptr %3, align 8
  %6 = load ptr, ptr %4, align 8, !tbaa !141
  call void @_ZNSt15__new_allocatorIcEC2ERKS0_(ptr noundef nonnull align 1 dereferenceable(1) %5, ptr noundef nonnull align 1 dereferenceable(1) %6) #21
  ret void
}

; Function Attrs: mustprogress nounwind optsize uwtable
define linkonce_odr void @_ZNSt16allocator_traitsISaIcEE37select_on_container_copy_constructionERKS0_(ptr dead_on_unwind noalias writable sret(%"class.std::allocator.17") align 1 %0, ptr noundef nonnull align 1 dereferenceable(1) %1) #8 comdat align 2 {
  %3 = alloca ptr, align 8
  %4 = alloca ptr, align 8
  store ptr %0, ptr %3, align 8
  store ptr %1, ptr %4, align 8, !tbaa !141
  %5 = load ptr, ptr %4, align 8, !tbaa !141
  call void @_ZNSaIcEC2ERKS_(ptr noundef nonnull align 1 dereferenceable(1) %0, ptr noundef nonnull align 1 dereferenceable(1) %5) #21
  ret void
}

; Function Attrs: mustprogress nounwind optsize uwtable
define linkonce_odr noundef ptr @_ZNSt19__ptr_traits_ptr_toIPccLb0EE10pointer_toERc(ptr noundef nonnull align 1 dereferenceable(1) %0) #8 comdat align 2 {
  %2 = alloca ptr, align 8
  store ptr %0, ptr %2, align 8, !tbaa !27
  %3 = load ptr, ptr %2, align 8, !tbaa !27
  ret ptr %3
}

; Function Attrs: mustprogress nounwind optsize uwtable
define available_externally noundef i64 @_ZNKSt7__cxx1112basic_stringIcSt11char_traitsIcESaIcEE6lengthEv(ptr noundef nonnull align 8 dereferenceable(32) %0) #8 align 2 {
  %2 = alloca ptr, align 8
  store ptr %0, ptr %2, align 8, !tbaa !57
  %3 = load ptr, ptr %2, align 8
  %4 = getelementptr inbounds nuw %"class.std::__cxx11::basic_string", ptr %3, i32 0, i32 1
  %5 = load i64, ptr %4, align 8, !tbaa !151
  ret i64 %5
}

; Function Attrs: mustprogress nounwind optsize uwtable
define available_externally noundef ptr @_ZNKSt7__cxx1112basic_stringIcSt11char_traitsIcESaIcEE7_M_dataEv(ptr noundef nonnull align 8 dereferenceable(32) %0) #8 align 2 {
  %2 = alloca ptr, align 8
  store ptr %0, ptr %2, align 8, !tbaa !57
  %3 = load ptr, ptr %2, align 8
  %4 = getelementptr inbounds nuw %"class.std::__cxx11::basic_string", ptr %3, i32 0, i32 0
  %5 = getelementptr inbounds nuw %"struct.std::__cxx11::basic_string<char>::_Alloc_hider", ptr %4, i32 0, i32 0
  %6 = load ptr, ptr %5, align 8, !tbaa !149
  ret ptr %6
}

; Function Attrs: mustprogress nounwind optsize uwtable
define linkonce_odr void @_ZNSt15__new_allocatorIcED2Ev(ptr noundef nonnull align 1 dereferenceable(1) %0) unnamed_addr #8 comdat align 2 {
  %2 = alloca ptr, align 8
  store ptr %0, ptr %2, align 8, !tbaa !152
  ret void
}

; Function Attrs: mustprogress nounwind optsize uwtable
define available_externally void @_ZNSt7__cxx1112basic_stringIcSt11char_traitsIcESaIcEE12_Alloc_hiderC2EPcOS3_(ptr noundef nonnull align 8 dereferenceable(8) %0, ptr noundef %1, ptr noundef nonnull align 1 dereferenceable(1) %2) unnamed_addr #8 align 2 {
  %4 = alloca ptr, align 8
  %5 = alloca ptr, align 8
  %6 = alloca ptr, align 8
  store ptr %0, ptr %4, align 8, !tbaa !143
  store ptr %1, ptr %5, align 8, !tbaa !27
  store ptr %2, ptr %6, align 8, !tbaa !141
  %7 = load ptr, ptr %4, align 8
  %8 = load ptr, ptr %6, align 8, !tbaa !141
  call void @_ZNSaIcEC2ERKS_(ptr noundef nonnull align 1 dereferenceable(1) %7, ptr noundef nonnull align 1 dereferenceable(1) %8) #21
  %9 = getelementptr inbounds nuw %"struct.std::__cxx11::basic_string<char>::_Alloc_hider", ptr %7, i32 0, i32 0
  %10 = load ptr, ptr %5, align 8, !tbaa !27
  store ptr %10, ptr %9, align 8, !tbaa !145
  ret void
}

; Function Attrs: mustprogress optsize uwtable
define linkonce_odr void @_ZN9__gnu_cxx14__alloc_traitsISaIcEcE17_S_select_on_copyERKS1_(ptr dead_on_unwind noalias writable sret(%"class.std::allocator.17") align 1 %0, ptr noundef nonnull align 1 dereferenceable(1) %1) #0 comdat align 2 {
  %3 = alloca ptr, align 8
  %4 = alloca ptr, align 8
  store ptr %0, ptr %3, align 8
  store ptr %1, ptr %4, align 8, !tbaa !141
  %5 = load ptr, ptr %4, align 8, !tbaa !141
  call void @_ZNSt16allocator_traitsISaIcEE37select_on_container_copy_constructionERKS0_(ptr dead_on_unwind writable sret(%"class.std::allocator.17") align 1 %0, ptr noundef nonnull align 1 dereferenceable(1) %5) #19
  ret void
}

; Function Attrs: mustprogress nounwind optsize uwtable
define available_externally noundef nonnull align 1 dereferenceable(1) ptr @_ZNKSt7__cxx1112basic_stringIcSt11char_traitsIcESaIcEE16_M_get_allocatorEv(ptr noundef nonnull align 8 dereferenceable(32) %0) #8 align 2 {
  %2 = alloca ptr, align 8
  store ptr %0, ptr %2, align 8, !tbaa !57
  %3 = load ptr, ptr %2, align 8
  %4 = getelementptr inbounds nuw %"class.std::__cxx11::basic_string", ptr %3, i32 0, i32 0
  ret ptr %4
}

; Function Attrs: mustprogress nounwind optsize uwtable
define available_externally noundef ptr @_ZNSt7__cxx1112basic_stringIcSt11char_traitsIcESaIcEE13_M_local_dataEv(ptr noundef nonnull align 8 dereferenceable(32) %0) #8 align 2 {
  %2 = alloca ptr, align 8
  store ptr %0, ptr %2, align 8, !tbaa !57
  %3 = load ptr, ptr %2, align 8
  %4 = getelementptr inbounds nuw %"class.std::__cxx11::basic_string", ptr %3, i32 0, i32 2
  %5 = getelementptr inbounds [16 x i8], ptr %4, i64 0, i64 0
  %6 = call noundef ptr @_ZNSt19__ptr_traits_ptr_toIPccLb0EE10pointer_toERc(ptr noundef nonnull align 1 dereferenceable(1) %5) #21
  ret ptr %6
}

; Function Attrs: mustprogress optsize uwtable
define available_externally void @_ZNSt7__cxx1112basic_stringIcSt11char_traitsIcESaIcEEC2ERKS4_(ptr noundef nonnull align 8 dereferenceable(32) %0, ptr noundef nonnull align 8 dereferenceable(32) %1) unnamed_addr #0 align 2 personality ptr @__gxx_personality_v0 {
  %3 = alloca ptr, align 8
  %4 = alloca ptr, align 8
  %5 = alloca %"class.std::allocator.17", align 1
  %6 = alloca ptr, align 8
  %7 = alloca i32, align 4
  store ptr %0, ptr %3, align 8, !tbaa !57
  store ptr %1, ptr %4, align 8, !tbaa !57
  %8 = load ptr, ptr %3, align 8
  %9 = getelementptr inbounds nuw %"class.std::__cxx11::basic_string", ptr %8, i32 0, i32 0
  %10 = call noundef ptr @_ZNSt7__cxx1112basic_stringIcSt11char_traitsIcESaIcEE13_M_local_dataEv(ptr noundef nonnull align 8 dereferenceable(32) %8) #19
  call void @llvm.lifetime.start.p0(i64 1, ptr %5) #20
  %11 = load ptr, ptr %4, align 8, !tbaa !57
  %12 = call noundef nonnull align 1 dereferenceable(1) ptr @_ZNKSt7__cxx1112basic_stringIcSt11char_traitsIcESaIcEE16_M_get_allocatorEv(ptr noundef nonnull align 8 dereferenceable(32) %11) #19
  call void @_ZN9__gnu_cxx14__alloc_traitsISaIcEcE17_S_select_on_copyERKS1_(ptr dead_on_unwind writable sret(%"class.std::allocator.17") align 1 %5, ptr noundef nonnull align 1 dereferenceable(1) %12) #19
  invoke void @_ZNSt7__cxx1112basic_stringIcSt11char_traitsIcESaIcEE12_Alloc_hiderC2EPcOS3_(ptr noundef nonnull align 8 dereferenceable(8) %9, ptr noundef %10, ptr noundef nonnull align 1 dereferenceable(1) %5) #19
          to label %13 unwind label %24

13:                                               ; preds = %2
  call void @_ZNSt15__new_allocatorIcED2Ev(ptr noundef nonnull align 1 dereferenceable(1) %5) #21
  call void @llvm.lifetime.end.p0(i64 1, ptr %5) #20
  %14 = load ptr, ptr %4, align 8, !tbaa !57
  %15 = invoke noundef ptr @_ZNKSt7__cxx1112basic_stringIcSt11char_traitsIcESaIcEE7_M_dataEv(ptr noundef nonnull align 8 dereferenceable(32) %14) #19
          to label %16 unwind label %28

16:                                               ; preds = %13
  %17 = load ptr, ptr %4, align 8, !tbaa !57
  %18 = invoke noundef ptr @_ZNKSt7__cxx1112basic_stringIcSt11char_traitsIcESaIcEE7_M_dataEv(ptr noundef nonnull align 8 dereferenceable(32) %17) #19
          to label %19 unwind label %28

19:                                               ; preds = %16
  %20 = load ptr, ptr %4, align 8, !tbaa !57
  %21 = call noundef i64 @_ZNKSt7__cxx1112basic_stringIcSt11char_traitsIcESaIcEE6lengthEv(ptr noundef nonnull align 8 dereferenceable(32) %20) #21
  %22 = getelementptr inbounds nuw i8, ptr %18, i64 %21
  invoke void @_ZNSt7__cxx1112basic_stringIcSt11char_traitsIcESaIcEE12_M_constructIPcEEvT_S7_St20forward_iterator_tag(ptr noundef nonnull align 8 dereferenceable(32) %8, ptr noundef %15, ptr noundef %22) #19
          to label %23 unwind label %28

23:                                               ; preds = %19
  ret void

24:                                               ; preds = %2
  %25 = landingpad { ptr, i32 }
          cleanup
  %26 = extractvalue { ptr, i32 } %25, 0
  store ptr %26, ptr %6, align 8
  %27 = extractvalue { ptr, i32 } %25, 1
  store i32 %27, ptr %7, align 4
  call void @_ZNSt15__new_allocatorIcED2Ev(ptr noundef nonnull align 1 dereferenceable(1) %5) #21
  call void @llvm.lifetime.end.p0(i64 1, ptr %5) #20
  br label %32

28:                                               ; preds = %19, %16, %13
  %29 = landingpad { ptr, i32 }
          cleanup
  %30 = extractvalue { ptr, i32 } %29, 0
  store ptr %30, ptr %6, align 8
  %31 = extractvalue { ptr, i32 } %29, 1
  store i32 %31, ptr %7, align 4
  call void @_ZNSt15__new_allocatorIcED2Ev(ptr noundef nonnull align 8 dereferenceable(8) %9) #21
  br label %32

32:                                               ; preds = %28, %24
  %33 = load ptr, ptr %6, align 8
  %34 = load i32, ptr %7, align 4
  %35 = insertvalue { ptr, i32 } poison, ptr %33, 0
  %36 = insertvalue { ptr, i32 } %35, i32 %34, 1
  resume { ptr, i32 } %36
}

; Function Attrs: inlinehint mustprogress optsize uwtable
define internal void @_ZZL28nanobind_init_test_issue_extRN8nanobind7module_EEN7ExampleC2ERKS2_(ptr noundef nonnull align 8 dereferenceable(32) %0, ptr noundef nonnull align 8 dereferenceable(32) %1) unnamed_addr #9 align 2 {
  %3 = alloca ptr, align 8
  %4 = alloca ptr, align 8
  store ptr %0, ptr %3, align 8, !tbaa !436
  store ptr %1, ptr %4, align 8, !tbaa !436
  %5 = load ptr, ptr %3, align 8
  %6 = getelementptr inbounds nuw %struct.Example, ptr %5, i32 0, i32 0
  %7 = load ptr, ptr %4, align 8, !tbaa !436
  %8 = getelementptr inbounds nuw %struct.Example, ptr %7, i32 0, i32 0
  call void @_ZNSt7__cxx1112basic_stringIcSt11char_traitsIcESaIcEEC2ERKS4_(ptr noundef nonnull align 8 dereferenceable(32) %6, ptr noundef nonnull align 8 dereferenceable(32) %8) #19
  ret void
}

; Function Attrs: mustprogress optsize uwtable
define internal void @_ZN8nanobind6detail9wrap_copyIZL28nanobind_init_test_issue_extRNS_7module_EE7ExampleEEvPvPKv(ptr noundef %0, ptr noundef %1) #0 {
  %3 = alloca ptr, align 8
  %4 = alloca ptr, align 8
  store ptr %0, ptr %3, align 8, !tbaa !52
  store ptr %1, ptr %4, align 8, !tbaa !52
  %5 = load ptr, ptr %3, align 8, !tbaa !52
  %6 = load ptr, ptr %4, align 8, !tbaa !52
  call void @_ZZL28nanobind_init_test_issue_extRN8nanobind7module_EEN7ExampleC2ERKS2_(ptr noundef nonnull align 8 dereferenceable(32) %5, ptr noundef nonnull align 8 dereferenceable(32) %6) #19
  ret void
}