; Function Attrs: mustprogress optsize uwtable
define internal void @_ZN8nanobind6detail9wrap_copyIZL28nanobind_init_test_issue_extRNS_7module_EE7ExampleEEvPvPKv(ptr noundef nonnull %0, ptr noundef readonly captures(none) %1) #0 personality ptr @__gxx_personality_v0 {
  %3 = getelementptr inbounds nuw i8, ptr %0, i64 16
  store ptr %3, ptr %0, align 8, !tbaa !100
  %4 = load ptr, ptr %1, align 8, !tbaa !101
  %5 = getelementptr inbounds nuw i8, ptr %1, i64 8
  %6 = load i64, ptr %5, align 8, !tbaa !72
  %7 = getelementptr inbounds nuw i8, ptr %4, i64 %6
  tail call void @_ZNSt7__cxx1112basic_stringIcSt11char_traitsIcESaIcEE12_M_constructIPcEEvT_S7_St20forward_iterator_tag(ptr noundef nonnull align 8 dereferenceable(32) %0, ptr noundef %4, ptr noundef %7) #26
  ret void
}